target datalayout = "e-m:e-p270:32:32-p271:32:32-p272:64:64-i64:64-i128:128-f80:128-n8:16:32:64-S128"
target triple = "x86_64-unknown-linux-gnu"

%"struct.facebook::velox::common::SpillStats" = type { i64, i64, i64, i64, i32, i64, i64, i64, i64, i64, i64, i64, i64 }

; Function Attrs: mustprogress nounwind uwtable
define linkonce_odr void @_ZN8facebook5velox6common10SpillStatsC2Ev(ptr noundef nonnull align 8 dereferenceable(104) %this) unnamed_addr #0 comdat align 2 {
entry:
  %this.addr = alloca ptr, align 8
  store ptr %this, ptr %this.addr, align 8
  %this1 = load ptr, ptr %this.addr, align 8
  %spillRuns = getelementptr inbounds %"struct.facebook::velox::common::SpillStats", ptr %this1, i32 0, i32 0
  store i64 0, ptr %spillRuns, align 8
  %spilledInputBytes = getelementptr inbounds %"struct.facebook::velox::common::SpillStats", ptr %this1, i32 0, i32 1
  store i64 0, ptr %spilledInputBytes, align 8
  %spilledBytes = getelementptr inbounds %"struct.facebook::velox::common::SpillStats", ptr %this1, i32 0, i32 2
  store i64 0, ptr %spilledBytes, align 8
  %spilledRows = getelementptr inbounds %"struct.facebook::velox::common::SpillStats", ptr %this1, i32 0, i32 3
  store i64 0, ptr %spilledRows, align 8
  %spilledPartitions = getelementptr inbounds %"struct.facebook::velox::common::SpillStats", ptr %this1, i32 0, i32 4
  store i32 0, ptr %spilledPartitions, align 8
  %spilledFiles = getelementptr inbounds %"struct.facebook::velox::common::SpillStats", ptr %this1, i32 0, i32 5
  store i64 0, ptr %spilledFiles, align 8
  %spillFillTimeUs = getelementptr inbounds %"struct.facebook::velox::common::SpillStats", ptr %this1, i32 0, i32 6
  store i64 0, ptr %spillFillTimeUs, align 8
  %spillSortTimeUs = getelementptr inbounds %"struct.facebook::velox::common::SpillStats", ptr %this1, i32 0, i32 7
  store i64 0, ptr %spillSortTimeUs, align 8
  %spillSerializationTimeUs = getelementptr inbounds %"struct.facebook::velox::common::SpillStats", ptr %this1, i32 0, i32 8
  store i64 0, ptr %spillSerializationTimeUs, align 8
  %spillDiskWrites = getelementptr inbounds %"struct.facebook::velox::common::SpillStats", ptr %this1, i32 0, i32 9
  store i64 0, ptr %spillDiskWrites, align 8
  %spillFlushTimeUs = getelementptr inbounds %"struct.facebook::velox::common::SpillStats", ptr %this1, i32 0, i32 10
  store i64 0, ptr %spillFlushTimeUs, align 8
  %spillWriteTimeUs = getelementptr inbounds %"struct.facebook::velox::common::SpillStats", ptr %this1, i32 0, i32 11
  store i64 0, ptr %spillWriteTimeUs, align 8
  %spillMaxLevelExceededCount = getelementptr inbounds %"struct.facebook::velox::common::SpillStats", ptr %this1, i32 0, i32 12
  store i64 0, ptr %spillMaxLevelExceededCount, align 8
  ret void
}

; Function Attrs: mustprogress nounwind uwtable
define void @_ZNK8facebook5velox6common10SpillStatsmiERKS2_(ptr noalias sret(%"struct.facebook::velox::common::SpillStats") align 8 %agg.result, ptr noundef nonnull align 8 dereferenceable(104) %this, ptr noundef nonnull align 8 dereferenceable(104) %other) #0 align 2 {
entry:
  %this.addr = alloca ptr, align 8
  %other.addr = alloca ptr, align 8
  store ptr %this, ptr %this.addr, align 8
  store ptr %other, ptr %other.addr, align 8
  %this1 = load ptr, ptr %this.addr, align 8
  call void @_ZN8facebook5velox6common10SpillStatsC2Ev(ptr noundef nonnull align 8 dereferenceable(104) %agg.result) #9
  %spillRuns = getelementptr inbounds %"struct.facebook::velox::common::SpillStats", ptr %this1, i32 0, i32 0
  %0 = load i64, ptr %spillRuns, align 8
  %1 = load ptr, ptr %other.addr, align 8
  %spillRuns2 = getelementptr inbounds %"struct.facebook::velox::common::SpillStats", ptr %1, i32 0, i32 0
  %2 = load i64, ptr %spillRuns2, align 8
  %sub = sub i64 %0, %2
  %spillRuns3 = getelementptr inbounds %"struct.facebook::velox::common::SpillStats", ptr %agg.result, i32 0, i32 0
  store i64 %sub, ptr %spillRuns3, align 8
  %spilledInputBytes = getelementptr inbounds %"struct.facebook::velox::common::SpillStats", ptr %this1, i32 0, i32 1
  %3 = load i64, ptr %spilledInputBytes, align 8
  %4 = load ptr, ptr %other.addr, align 8
  %spilledInputBytes4 = getelementptr inbounds %"struct.facebook::velox::common::SpillStats", ptr %4, i32 0, i32 1
  %5 = load i64, ptr %spilledInputBytes4, align 8
  %sub5 = sub i64 %3, %5
  %spilledInputBytes6 = getelementptr inbounds %"struct.facebook::velox::common::SpillStats", ptr %agg.result, i32 0, i32 1
  store i64 %sub5, ptr %spilledInputBytes6, align 8
  %spilledBytes = getelementptr inbounds %"struct.facebook::velox::common::SpillStats", ptr %this1, i32 0, i32 2
  %6 = load i64, ptr %spilledBytes, align 8
  %7 = load ptr, ptr %other.addr, align 8
  %spilledBytes7 = getelementptr inbounds %"struct.facebook::velox::common::SpillStats", ptr %7, i32 0, i32 2
  %8 = load i64, ptr %spilledBytes7, align 8
  %sub8 = sub i64 %6, %8
  %spilledBytes9 = getelementptr inbounds %"struct.facebook::velox::common::SpillStats", ptr %agg.result, i32 0, i32 2
  store i64 %sub8, ptr %spilledBytes9, align 8
  %spilledRows = getelementptr inbounds %"struct.facebook::velox::common::SpillStats", ptr %this1, i32 0, i32 3
  %9 = load i64, ptr %spilledRows, align 8
  %10 = load ptr, ptr %other.addr, align 8
  %spilledRows10 = getelementptr inbounds %"struct.facebook::velox::common::SpillStats", ptr %10, i32 0, i32 3
  %11 = load i64, ptr %spilledRows10, align 8
  %sub11 = sub i64 %9, %11
  %spilledRows12 = getelementptr inbounds %"struct.facebook::velox::common::SpillStats", ptr %agg.result, i32 0, i32 3
  store i64 %sub11, ptr %spilledRows12, align 8
  %spilledPartitions = getelementptr inbounds %"struct.facebook::velox::common::SpillStats", ptr %this1, i32 0, i32 4
  %12 = load i32, ptr %spilledPartitions, align 8
  %13 = load ptr, ptr %other.addr, align 8
  %spilledPartitions13 = getelementptr inbounds %"struct.facebook::velox::common::SpillStats", ptr %13, i32 0, i32 4
  %14 = load i32, ptr %spilledPartitions13, align 8
  %sub14 = sub i32 %12, %14
  %spilledPartitions15 = getelementptr inbounds %"struct.facebook::velox::common::SpillStats", ptr %agg.result, i32 0, i32 4
  store i32 %sub14, ptr %spilledPartitions15, align 8
  %spilledFiles = getelementptr inbounds %"struct.facebook::velox::common::SpillStats", ptr %this1, i32 0, i32 5
  %15 = load i64, ptr %spilledFiles, align 8
  %16 = load ptr, ptr %other.addr, align 8
  %spilledFiles16 = getelementptr inbounds %"struct.facebook::velox::common::SpillStats", ptr %16, i32 0, i32 5
  %17 = load i64, ptr %spilledFiles16, align 8
  %sub17 = sub i64 %15, %17
  %spilledFiles18 = getelementptr inbounds %"struct.facebook::velox::common::SpillStats", ptr %agg.result, i32 0, i32 5
  store i64 %sub17, ptr %spilledFiles18, align 8
  %spillFillTimeUs = getelementptr inbounds %"struct.facebook::velox::common::SpillStats", ptr %this1, i32 0, i32 6
  %18 = load i64, ptr %spillFillTimeUs, align 8
  %19 = load ptr, ptr %other.addr, align 8
  %spillFillTimeUs19 = getelementptr inbounds %"struct.facebook::velox::common::SpillStats", ptr %19, i32 0, i32 6
  %20 = load i64, ptr %spillFillTimeUs19, align 8
  %sub20 = sub i64 %18, %20
  %spillFillTimeUs21 = getelementptr inbounds %"struct.facebook::velox::common::SpillStats", ptr %agg.result, i32 0, i32 6
  store i64 %sub20, ptr %spillFillTimeUs21, align 8
  %spillSortTimeUs = getelementptr inbounds %"struct.facebook::velox::common::SpillStats", ptr %this1, i32 0, i32 7
  %21 = load i64, ptr %spillSortTimeUs, align 8
  %22 = load ptr, ptr %other.addr, align 8
  %spillSortTimeUs22 = getelementptr inbounds %"struct.facebook::velox::common::SpillStats", ptr %22, i32 0, i32 7
  %23 = load i64, ptr %spillSortTimeUs22, align 8
  %sub23 = sub i64 %21, %23
  %spillSortTimeUs24 = getelementptr inbounds %"struct.facebook::velox::common::SpillStats", ptr %agg.result, i32 0, i32 7
  store i64 %sub23, ptr %spillSortTimeUs24, align 8
  %spillSerializationTimeUs = getelementptr inbounds %"struct.facebook::velox::common::SpillStats", ptr %this1, i32 0, i32 8
  %24 = load i64, ptr %spillSerializationTimeUs, align 8
  %25 = load ptr, ptr %other.addr, align 8
  %spillSerializationTimeUs25 = getelementptr inbounds %"struct.facebook::velox::common::SpillStats", ptr %25, i32 0, i32 8
  %26 = load i64, ptr %spillSerializationTimeUs25, align 8
  %sub26 = sub i64 %24, %26
  %spillSerializationTimeUs27 = getelementptr inbounds %"struct.facebook::velox::common::SpillStats", ptr %agg.result, i32 0, i32 8
  store i64 %sub26, ptr %spillSerializationTimeUs27, align 8
  %spillDiskWrites = getelementptr inbounds %"struct.facebook::velox::common::SpillStats", ptr %this1, i32 0, i32 9
  %27 = load i64, ptr %spillDiskWrites, align 8
  %28 = load ptr, ptr %other.addr, align 8
  %spillDiskWrites28 = getelementptr inbounds %"struct.facebook::velox::common::SpillStats", ptr %28, i32 0, i32 9
  %29 = load i64, ptr %spillDiskWrites28, align 8
  %sub29 = sub i64 %27, %29
  %spillDiskWrites30 = getelementptr inbounds %"struct.facebook::velox::common::SpillStats", ptr %agg.result, i32 0, i32 9
  store i64 %sub29, ptr %spillDiskWrites30, align 8
  %spillFlushTimeUs = getelementptr inbounds %"struct.facebook::velox::common::SpillStats", ptr %this1, i32 0, i32 10
  %30 = load i64, ptr %spillFlushTimeUs, align 8
  %31 = load ptr, ptr %other.addr, align 8
  %spillFlushTimeUs31 = getelementptr inbounds %"struct.facebook::velox::common::SpillStats", ptr %31, i32 0, i32 10
  %32 = load i64, ptr %spillFlushTimeUs31, align 8
  %sub32 = sub i64 %30, %32
  %spillFlushTimeUs33 = getelementptr inbounds %"struct.facebook::velox::common::SpillStats", ptr %agg.result, i32 0, i32 10
  store i64 %sub32, ptr %spillFlushTimeUs33, align 8
  %spillWriteTimeUs = getelementptr inbounds %"struct.facebook::velox::common::SpillStats", ptr %this1, i32 0, i32 11
  %33 = load i64, ptr %spillWriteTimeUs, align 8
  %34 = load ptr, ptr %other.addr, align 8
  %spillWriteTimeUs34 = getelementptr inbounds %"struct.facebook::velox::common::SpillStats", ptr %34, i32 0, i32 11
  %35 = load i64, ptr %spillWriteTimeUs34, align 8
  %sub35 = sub i64 %33, %35
  %spillWriteTimeUs36 = getelementptr inbounds %"struct.facebook::velox::common::SpillStats", ptr %agg.result, i32 0, i32 11
  store i64 %sub35, ptr %spillWriteTimeUs36, align 8
  %spillMaxLevelExceededCount = getelementptr inbounds %"struct.facebook::velox::common::SpillStats", ptr %this1, i32 0, i32 12
  %36 = load i64, ptr %spillMaxLevelExceededCount, align 8
  %37 = load ptr, ptr %other.addr, align 8
  %spillMaxLevelExceededCount37 = getelementptr inbounds %"struct.facebook::velox::common::SpillStats", ptr %37, i32 0, i32 12
  %38 = load i64, ptr %spillMaxLevelExceededCount37, align 8
  %sub38 = sub i64 %36, %38
  %spillMaxLevelExceededCount39 = getelementptr inbounds %"struct.facebook::velox::common::SpillStats", ptr %agg.result, i32 0, i32 12
  store i64 %sub38, ptr %spillMaxLevelExceededCount39, align 8
  ret void
}