; Function Attrs: mustprogress nofree norecurse nosync nounwind willreturn memory(argmem: readwrite) uwtable
define void @_ZNK8facebook5velox6common10SpillStatsmiERKS2_(ptr noalias nocapture writeonly sret(%"struct.facebook::velox::common::SpillStats") align 8 %agg.result, ptr nocapture noundef nonnull readonly align 8 dereferenceable(104) %this, ptr nocapture noundef nonnull readonly align 8 dereferenceable(104) %other) local_unnamed_addr #1 align 2 {
entry:
  %spilledFiles.i = getelementptr inbounds i8, ptr %agg.result, i64 40
  %0 = load <4 x i64>, ptr %this, align 8
  %1 = load <4 x i64>, ptr %other, align 8
  %2 = sub <4 x i64> %0, %1
  store <4 x i64> %2, ptr %agg.result, align 8
  %spilledPartitions = getelementptr inbounds i8, ptr %this, i64 32
  %3 = load i32, ptr %spilledPartitions, align 8
  %spilledPartitions13 = getelementptr inbounds i8, ptr %other, i64 32
  %4 = load i32, ptr %spilledPartitions13, align 8
  %sub14 = sub i32 %3, %4
  %spilledPartitions15 = getelementptr inbounds i8, ptr %agg.result, i64 32
  store i32 %sub14, ptr %spilledPartitions15, align 8
  %spilledFiles = getelementptr inbounds i8, ptr %this, i64 40
  %spilledFiles16 = getelementptr inbounds i8, ptr %other, i64 40
  %5 = load <4 x i64>, ptr %spilledFiles, align 8
  %6 = load <4 x i64>, ptr %spilledFiles16, align 8
  %7 = sub <4 x i64> %5, %6
  store <4 x i64> %7, ptr %spilledFiles.i, align 8
  %spillDiskWrites = getelementptr inbounds i8, ptr %this, i64 72
  %spillDiskWrites28 = getelementptr inbounds i8, ptr %other, i64 72
  %spillDiskWrites30 = getelementptr inbounds i8, ptr %agg.result, i64 72
  %8 = load <4 x i64>, ptr %spillDiskWrites, align 8
  %9 = load <4 x i64>, ptr %spillDiskWrites28, align 8
  %10 = sub <4 x i64> %8, %9
  store <4 x i64> %10, ptr %spillDiskWrites30, align 8
  ret void
}